target datalayout = "e-m:e-p270:32:32-p271:32:32-p272:64:64-i64:64-i128:128-f80:128-n8:16:32:64-S128"
target triple = "x86_64-unknown-linux-gnu"

%"class.std::__shared_count" = type { ptr }
%"struct.std::_Rb_tree_const_iterator" = type { ptr }
%"class.YAML::detail::memory" = type { %"class.std::set" }
%"class.std::set" = type { %"class.std::_Rb_tree" }
%"class.std::_Rb_tree" = type { %"struct.std::_Rb_tree<std::shared_ptr<YAML::detail::node>, std::shared_ptr<YAML::detail::node>, std::_Identity<std::shared_ptr<YAML::detail::node>>, std::less<std::shared_ptr<YAML::detail::node>>>::_Rb_tree_impl" }
%"struct.std::_Rb_tree<std::shared_ptr<YAML::detail::node>, std::shared_ptr<YAML::detail::node>, std::_Identity<std::shared_ptr<YAML::detail::node>>, std::less<std::shared_ptr<YAML::detail::node>>>::_Rb_tree_impl" = type { %"struct.std::_Rb_tree_key_compare", %"struct.std::_Rb_tree_header" }
%"struct.std::_Rb_tree_key_compare" = type { %"struct.std::less" }
%"struct.std::less" = type { i8 }
%"struct.std::_Rb_tree_header" = type { %"struct.std::_Rb_tree_node_base", i64 }
%"struct.std::_Rb_tree_node_base" = type { i32, ptr, ptr, ptr }
%"class.std::shared_ptr.0" = type { %"class.std::__shared_ptr.1" }
%"class.std::__shared_ptr.1" = type { ptr, %"class.std::__shared_count" }
%"struct.std::pair" = type <{ %"struct.std::_Rb_tree_const_iterator", i8, [7 x i8] }>
%"struct.std::pair.34" = type <{ %"struct.std::_Rb_tree_iterator", i8, [7 x i8] }>
%"struct.std::_Rb_tree_iterator" = type { ptr }
%"class.std::_Sp_counted_base" = type { ptr, i32, i32 }
%"class.std::_Sp_counted_ptr.32" = type { %"class.std::_Sp_counted_base", ptr }

; Function Attrs: mustprogress nounwind uwtable
define linkonce_odr void @_ZNSt16_Sp_counted_baseILN9__gnu_cxx12_Lock_policyE2EEC2Ev(ptr noundef nonnull align 8 dereferenceable(16) %this) unnamed_addr #1 comdat align 2 {
entry:
  %this.addr = alloca ptr, align 8
  store ptr %this, ptr %this.addr, align 8
  %this1 = load ptr, ptr %this.addr, align 8
  store ptr getelementptr inbounds ({ [7 x ptr] }, ptr @_ZTVSt16_Sp_counted_baseILN9__gnu_cxx12_Lock_policyE2EE, i32 0, i32 0, i32 2), ptr %this1, align 8
  %_M_use_count = getelementptr inbounds %"class.std::_Sp_counted_base", ptr %this1, i32 0, i32 1
  store i32 1, ptr %_M_use_count, align 8
  %_M_weak_count = getelementptr inbounds %"class.std::_Sp_counted_base", ptr %this1, i32 0, i32 2
  store i32 1, ptr %_M_weak_count, align 4
  ret void
}

; Function Attrs: mustprogress nounwind uwtable
define linkonce_odr void @_ZNSt15_Sp_counted_ptrIPN4YAML6detail4nodeELN9__gnu_cxx12_Lock_policyE2EEC2ES3_(ptr noundef nonnull align 8 dereferenceable(24) %this, ptr noundef %__p) unnamed_addr #1 comdat align 2 {
entry:
  %this.addr = alloca ptr, align 8
  %__p.addr = alloca ptr, align 8
  store ptr %this, ptr %this.addr, align 8
  store ptr %__p, ptr %__p.addr, align 8
  %this1 = load ptr, ptr %this.addr, align 8
  call void @_ZNSt16_Sp_counted_baseILN9__gnu_cxx12_Lock_policyE2EEC2Ev(ptr noundef nonnull align 8 dereferenceable(16) %this1) #12
  store ptr getelementptr inbounds ({ [7 x ptr] }, ptr @_ZTVSt15_Sp_counted_ptrIPN4YAML6detail4nodeELN9__gnu_cxx12_Lock_policyE2EE, i32 0, i32 0, i32 2), ptr %this1, align 8
  %_M_ptr = getelementptr inbounds %"class.std::_Sp_counted_ptr.32", ptr %this1, i32 0, i32 1
  %0 = load ptr, ptr %__p.addr, align 8
  store ptr %0, ptr %_M_ptr, align 8
  ret void
}

; Function Attrs: mustprogress uwtable
define linkonce_odr void @_ZNSt14__shared_countILN9__gnu_cxx12_Lock_policyE2EEC2IPN4YAML6detail4nodeEEET_(ptr noundef nonnull align 8 dereferenceable(8) %this, ptr noundef %__p) unnamed_addr #0 comdat align 2 personality ptr @__gxx_personality_v0 {
entry:
  %this.addr = alloca ptr, align 8
  %__p.addr = alloca ptr, align 8
  %exn.slot = alloca ptr, align 8
  %ehselector.slot = alloca i32, align 4
  store ptr %this, ptr %this.addr, align 8
  store ptr %__p, ptr %__p.addr, align 8
  %this1 = load ptr, ptr %this.addr, align 8
  %_M_pi = getelementptr inbounds %"class.std::__shared_count", ptr %this1, i32 0, i32 0
  store ptr null, ptr %_M_pi, align 8
  %call = invoke noalias noundef nonnull ptr @_Znwm(i64 noundef 24) #13
          to label %invoke.cont unwind label %lpad

invoke.cont:                                      ; preds = %entry
  %0 = load ptr, ptr %__p.addr, align 8
  call void @_ZNSt15_Sp_counted_ptrIPN4YAML6detail4nodeELN9__gnu_cxx12_Lock_policyE2EEC2ES3_(ptr noundef nonnull align 8 dereferenceable(24) %call, ptr noundef %0) #12
  %_M_pi2 = getelementptr inbounds %"class.std::__shared_count", ptr %this1, i32 0, i32 0
  store ptr %call, ptr %_M_pi2, align 8
  br label %try.cont

lpad:                                             ; preds = %entry
  %1 = landingpad { ptr, i32 }
          catch ptr null
  %2 = extractvalue { ptr, i32 } %1, 0
  store ptr %2, ptr %exn.slot, align 8
  %3 = extractvalue { ptr, i32 } %1, 1
  store i32 %3, ptr %ehselector.slot, align 4
  br label %catch

catch:                                            ; preds = %lpad
  %exn = load ptr, ptr %exn.slot, align 8
  %4 = call ptr @__cxa_begin_catch(ptr %exn) #12
  %5 = load ptr, ptr %__p.addr, align 8
  %isnull = icmp eq ptr %5, null
  br i1 %isnull, label %delete.end, label %delete.notnull

delete.notnull:                                   ; preds = %catch
  call void @_ZN4YAML6detail4nodeD2Ev(ptr noundef nonnull align 8 dereferenceable(72) %5) #12
  call void @_ZdlPv(ptr noundef %5) #14
  br label %delete.end

delete.end:                                       ; preds = %delete.notnull, %catch
  invoke void @__cxa_rethrow() #16
          to label %unreachable unwind label %lpad3

lpad3:                                            ; preds = %delete.end
  %6 = landingpad { ptr, i32 }
          cleanup
  %7 = extractvalue { ptr, i32 } %6, 0
  store ptr %7, ptr %exn.slot, align 8
  %8 = extractvalue { ptr, i32 } %6, 1
  store i32 %8, ptr %ehselector.slot, align 4
  invoke void @__cxa_end_catch()
          to label %invoke.cont4 unwind label %terminate.lpad

invoke.cont4:                                     ; preds = %lpad3
  br label %eh.resume

try.cont:                                         ; preds = %invoke.cont
  ret void

eh.resume:                                        ; preds = %invoke.cont4
  %exn5 = load ptr, ptr %exn.slot, align 8
  %sel = load i32, ptr %ehselector.slot, align 4
  %lpad.val = insertvalue { ptr, i32 } poison, ptr %exn5, 0
  %lpad.val6 = insertvalue { ptr, i32 } %lpad.val, i32 %sel, 1
  resume { ptr, i32 } %lpad.val6

terminate.lpad:                                   ; preds = %lpad3
  %9 = landingpad { ptr, i32 }
          catch ptr null
  %10 = extractvalue { ptr, i32 } %9, 0
  call void @__clang_call_terminate(ptr %10) #15
  unreachable

unreachable:                                      ; preds = %delete.end
  unreachable
}

; Function Attrs: mustprogress nounwind uwtable
define linkonce_odr noundef ptr @_ZNKSt12__shared_ptrIN4YAML6detail4nodeELN9__gnu_cxx12_Lock_policyE2EE3getEv(ptr noundef nonnull align 8 dereferenceable(16) %this) #1 comdat align 2 {
entry:
  %this.addr = alloca ptr, align 8
  store ptr %this, ptr %this.addr, align 8
  %this1 = load ptr, ptr %this.addr, align 8
  %_M_ptr = getelementptr inbounds %"class.std::__shared_ptr.1", ptr %this1, i32 0, i32 0
  %0 = load ptr, ptr %_M_ptr, align 8
  ret ptr %0
}

; Function Attrs: mustprogress nounwind uwtable
define linkonce_odr void @_ZNSt23_Rb_tree_const_iteratorISt10shared_ptrIN4YAML6detail4nodeEEEC2ERKSt17_Rb_tree_iteratorIS4_E(ptr noundef nonnull align 8 dereferenceable(8) %this, ptr noundef nonnull align 8 dereferenceable(8) %__it) unnamed_addr #1 comdat align 2 {
entry:
  %this.addr = alloca ptr, align 8
  %__it.addr = alloca ptr, align 8
  store ptr %this, ptr %this.addr, align 8
  store ptr %__it, ptr %__it.addr, align 8
  %this1 = load ptr, ptr %this.addr, align 8
  %_M_node = getelementptr inbounds %"struct.std::_Rb_tree_const_iterator", ptr %this1, i32 0, i32 0
  %0 = load ptr, ptr %__it.addr, align 8
  %_M_node2 = getelementptr inbounds %"struct.std::_Rb_tree_iterator", ptr %0, i32 0, i32 0
  %1 = load ptr, ptr %_M_node2, align 8
  store ptr %1, ptr %_M_node, align 8
  ret void
}

; Function Attrs: mustprogress nounwind uwtable
define linkonce_odr void @_ZNSt12__shared_ptrIN4YAML6detail4nodeELN9__gnu_cxx12_Lock_policyE2EE31_M_enable_shared_from_this_withIS2_S2_EENSt9enable_ifIXntsr15__has_esft_baseIT0_EE5valueEvE4typeEPT_(ptr noundef nonnull align 8 dereferenceable(16) %this, ptr noundef %0) #1 comdat align 2 {
entry:
  %this.addr = alloca ptr, align 8
  %.addr = alloca ptr, align 8
  store ptr %this, ptr %this.addr, align 8
  store ptr %0, ptr %.addr, align 8
  ret void
}

; Function Attrs: mustprogress uwtable
define linkonce_odr void @_ZNSt14__shared_countILN9__gnu_cxx12_Lock_policyE2EEC2IPN4YAML6detail4nodeEEET_St17integral_constantIbLb0EE(ptr noundef nonnull align 8 dereferenceable(8) %this, ptr noundef %__p) unnamed_addr #0 comdat align 2 {
entry:
  %this.addr = alloca ptr, align 8
  %__p.addr = alloca ptr, align 8
  store ptr %this, ptr %this.addr, align 8
  store ptr %__p, ptr %__p.addr, align 8
  %this1 = load ptr, ptr %this.addr, align 8
  %0 = load ptr, ptr %__p.addr, align 8
  call void @_ZNSt14__shared_countILN9__gnu_cxx12_Lock_policyE2EEC2IPN4YAML6detail4nodeEEET_(ptr noundef nonnull align 8 dereferenceable(8) %this1, ptr noundef %0)
  ret void
}

; Function Attrs: mustprogress nounwind uwtable
define linkonce_odr noundef ptr @_ZNKSt19__shared_ptr_accessIN4YAML6detail4nodeELN9__gnu_cxx12_Lock_policyE2ELb0ELb0EE6_M_getEv(ptr noundef nonnull align 1 dereferenceable(1) %this) #1 comdat align 2 {
entry:
  %this.addr = alloca ptr, align 8
  store ptr %this, ptr %this.addr, align 8
  %this1 = load ptr, ptr %this.addr, align 8
  %call = call noundef ptr @_ZNKSt12__shared_ptrIN4YAML6detail4nodeELN9__gnu_cxx12_Lock_policyE2EE3getEv(ptr noundef nonnull align 8 dereferenceable(16) %this1) #12
  ret ptr %call
}

; Function Attrs: mustprogress nounwind uwtable
define linkonce_odr void @_ZNSt4pairISt23_Rb_tree_const_iteratorISt10shared_ptrIN4YAML6detail4nodeEEEbEC2IRSt17_Rb_tree_iteratorIS5_ERbTnNSt9enable_ifIXaaclsr5_PCCPE22_MoveConstructiblePairIT_T0_EEclsr5_PCCPE30_ImplicitlyMoveConvertiblePairISE_SF_EEEbE4typeELb1EEEOSE_OSF_(ptr noundef nonnull align 8 dereferenceable(9) %this, ptr noundef nonnull align 8 dereferenceable(8) %__x, ptr noundef nonnull align 1 dereferenceable(1) %__y) unnamed_addr #1 comdat align 2 {
entry:
  %this.addr = alloca ptr, align 8
  %__x.addr = alloca ptr, align 8
  %__y.addr = alloca ptr, align 8
  store ptr %this, ptr %this.addr, align 8
  store ptr %__x, ptr %__x.addr, align 8
  store ptr %__y, ptr %__y.addr, align 8
  %this1 = load ptr, ptr %this.addr, align 8
  %first = getelementptr inbounds %"struct.std::pair", ptr %this1, i32 0, i32 0
  %0 = load ptr, ptr %__x.addr, align 8
  call void @_ZNSt23_Rb_tree_const_iteratorISt10shared_ptrIN4YAML6detail4nodeEEEC2ERKSt17_Rb_tree_iteratorIS4_E(ptr noundef nonnull align 8 dereferenceable(8) %first, ptr noundef nonnull align 8 dereferenceable(8) %0) #12
  %second = getelementptr inbounds %"struct.std::pair", ptr %this1, i32 0, i32 1
  %1 = load ptr, ptr %__y.addr, align 8
  %2 = load i8, ptr %1, align 1
  %tobool = trunc i8 %2 to i1
  %frombool = zext i1 %tobool to i8
  store i8 %frombool, ptr %second, align 8
  ret void
}

; Function Attrs: mustprogress uwtable
define linkonce_odr void @_ZNSt12__shared_ptrIN4YAML6detail4nodeELN9__gnu_cxx12_Lock_policyE2EEC2IS2_vEEPT_(ptr noundef nonnull align 8 dereferenceable(16) %this, ptr noundef %__p) unnamed_addr #0 comdat align 2 {
entry:
  %this.addr = alloca ptr, align 8
  %__p.addr = alloca ptr, align 8
  store ptr %this, ptr %this.addr, align 8
  store ptr %__p, ptr %__p.addr, align 8
  %this1 = load ptr, ptr %this.addr, align 8
  %_M_ptr = getelementptr inbounds %"class.std::__shared_ptr.1", ptr %this1, i32 0, i32 0
  %0 = load ptr, ptr %__p.addr, align 8
  store ptr %0, ptr %_M_ptr, align 8
  %_M_refcount = getelementptr inbounds %"class.std::__shared_ptr.1", ptr %this1, i32 0, i32 1
  %1 = load ptr, ptr %__p.addr, align 8
  call void @_ZNSt14__shared_countILN9__gnu_cxx12_Lock_policyE2EEC2IPN4YAML6detail4nodeEEET_St17integral_constantIbLb0EE(ptr noundef nonnull align 8 dereferenceable(8) %_M_refcount, ptr noundef %1)
  %2 = load ptr, ptr %__p.addr, align 8
  call void @_ZNSt12__shared_ptrIN4YAML6detail4nodeELN9__gnu_cxx12_Lock_policyE2EE31_M_enable_shared_from_this_withIS2_S2_EENSt9enable_ifIXntsr15__has_esft_baseIT0_EE5valueEvE4typeEPT_(ptr noundef nonnull align 8 dereferenceable(16) %this1, ptr noundef %2) #12
  ret void
}

; Function Attrs: mustprogress nounwind uwtable
define linkonce_odr noundef nonnull align 8 dereferenceable(72) ptr @_ZNKSt19__shared_ptr_accessIN4YAML6detail4nodeELN9__gnu_cxx12_Lock_policyE2ELb0ELb0EEdeEv(ptr noundef nonnull align 1 dereferenceable(1) %this) #1 comdat align 2 {
entry:
  %this.addr = alloca ptr, align 8
  store ptr %this, ptr %this.addr, align 8
  %this1 = load ptr, ptr %this.addr, align 8
  br label %do.body

do.body:                                          ; preds = %entry
  br label %do.cond

do.cond:                                          ; preds = %do.body
  br label %do.end

do.end:                                           ; preds = %do.cond
  %call = call noundef ptr @_ZNKSt19__shared_ptr_accessIN4YAML6detail4nodeELN9__gnu_cxx12_Lock_policyE2ELb0ELb0EE6_M_getEv(ptr noundef nonnull align 1 dereferenceable(1) %this1) #12
  ret ptr %call
}

; Function Attrs: mustprogress uwtable
define linkonce_odr { ptr, i8 } @_ZNSt3setISt10shared_ptrIN4YAML6detail4nodeEESt4lessIS4_ESaIS4_EE6insertERKS4_(ptr noundef nonnull align 8 dereferenceable(48) %this, ptr noundef nonnull align 8 dereferenceable(16) %__x) #0 comdat align 2 {
entry:
  %retval = alloca %"struct.std::pair", align 8
  %this.addr = alloca ptr, align 8
  %__x.addr = alloca ptr, align 8
  %__p = alloca %"struct.std::pair.34", align 8
  store ptr %this, ptr %this.addr, align 8
  store ptr %__x, ptr %__x.addr, align 8
  %this1 = load ptr, ptr %this.addr, align 8
  %_M_t = getelementptr inbounds %"class.std::set", ptr %this1, i32 0, i32 0
  %0 = load ptr, ptr %__x.addr, align 8
  %call = call { ptr, i8 } @_ZNSt8_Rb_treeISt10shared_ptrIN4YAML6detail4nodeEES4_St9_IdentityIS4_ESt4lessIS4_ESaIS4_EE16_M_insert_uniqueIRKS4_EESt4pairISt17_Rb_tree_iteratorIS4_EbEOT_(ptr noundef nonnull align 8 dereferenceable(48) %_M_t, ptr noundef nonnull align 8 dereferenceable(16) %0)
  %1 = getelementptr inbounds { ptr, i8 }, ptr %__p, i32 0, i32 0
  %2 = extractvalue { ptr, i8 } %call, 0
  store ptr %2, ptr %1, align 8
  %3 = getelementptr inbounds { ptr, i8 }, ptr %__p, i32 0, i32 1
  %4 = extractvalue { ptr, i8 } %call, 1
  store i8 %4, ptr %3, align 8
  %first = getelementptr inbounds %"struct.std::pair.34", ptr %__p, i32 0, i32 0
  %second = getelementptr inbounds %"struct.std::pair.34", ptr %__p, i32 0, i32 1
  call void @_ZNSt4pairISt23_Rb_tree_const_iteratorISt10shared_ptrIN4YAML6detail4nodeEEEbEC2IRSt17_Rb_tree_iteratorIS5_ERbTnNSt9enable_ifIXaaclsr5_PCCPE22_MoveConstructiblePairIT_T0_EEclsr5_PCCPE30_ImplicitlyMoveConvertiblePairISE_SF_EEEbE4typeELb1EEEOSE_OSF_(ptr noundef nonnull align 8 dereferenceable(9) %retval, ptr noundef nonnull align 8 dereferenceable(8) %first, ptr noundef nonnull align 1 dereferenceable(1) %second)
  %5 = load { ptr, i8 }, ptr %retval, align 8
  ret { ptr, i8 } %5
}

; Function Attrs: mustprogress uwtable
define linkonce_odr void @_ZNSt10shared_ptrIN4YAML6detail4nodeEEC2IS2_vEEPT_(ptr noundef nonnull align 8 dereferenceable(16) %this, ptr noundef %__p) unnamed_addr #0 comdat align 2 {
entry:
  %this.addr = alloca ptr, align 8
  %__p.addr = alloca ptr, align 8
  store ptr %this, ptr %this.addr, align 8
  store ptr %__p, ptr %__p.addr, align 8
  %this1 = load ptr, ptr %this.addr, align 8
  %0 = load ptr, ptr %__p.addr, align 8
  call void @_ZNSt12__shared_ptrIN4YAML6detail4nodeELN9__gnu_cxx12_Lock_policyE2EEC2IS2_vEEPT_(ptr noundef nonnull align 8 dereferenceable(16) %this1, ptr noundef %0)
  ret void
}

; Function Attrs: mustprogress uwtable
define noundef nonnull align 8 dereferenceable(72) ptr @_ZN4YAML6detail6memory11create_nodeEv(ptr noundef nonnull align 8 dereferenceable(48) %this) #0 align 2 personality ptr @__gxx_personality_v0 {
entry:
  %this.addr = alloca ptr, align 8
  %pNode = alloca %"class.std::shared_ptr.0", align 8
  %exn.slot = alloca ptr, align 8
  %ehselector.slot = alloca i32, align 4
  %coerce = alloca %"struct.std::pair", align 8
  store ptr %this, ptr %this.addr, align 8
  %this1 = load ptr, ptr %this.addr, align 8
  %call = call noalias noundef nonnull ptr @_Znwm(i64 noundef 72) #13
  invoke void @_ZN4YAML6detail4nodeC2Ev(ptr noundef nonnull align 8 dereferenceable(72) %call)
          to label %invoke.cont unwind label %lpad

invoke.cont:                                      ; preds = %entry
  call void @_ZNSt10shared_ptrIN4YAML6detail4nodeEEC2IS2_vEEPT_(ptr noundef nonnull align 8 dereferenceable(16) %pNode, ptr noundef %call)
  %m_nodes = getelementptr inbounds %"class.YAML::detail::memory", ptr %this1, i32 0, i32 0
  %call4 = invoke { ptr, i8 } @_ZNSt3setISt10shared_ptrIN4YAML6detail4nodeEESt4lessIS4_ESaIS4_EE6insertERKS4_(ptr noundef nonnull align 8 dereferenceable(48) %m_nodes, ptr noundef nonnull align 8 dereferenceable(16) %pNode)
          to label %invoke.cont3 unwind label %lpad2

invoke.cont3:                                     ; preds = %invoke.cont
  %0 = getelementptr inbounds { ptr, i8 }, ptr %coerce, i32 0, i32 0
  %1 = extractvalue { ptr, i8 } %call4, 0
  store ptr %1, ptr %0, align 8
  %2 = getelementptr inbounds { ptr, i8 }, ptr %coerce, i32 0, i32 1
  %3 = extractvalue { ptr, i8 } %call4, 1
  store i8 %3, ptr %2, align 8
  %call5 = call noundef nonnull align 8 dereferenceable(72) ptr @_ZNKSt19__shared_ptr_accessIN4YAML6detail4nodeELN9__gnu_cxx12_Lock_policyE2ELb0ELb0EEdeEv(ptr noundef nonnull align 1 dereferenceable(1) %pNode) #12
  call void @_ZNSt10shared_ptrIN4YAML6detail4nodeEED2Ev(ptr noundef nonnull align 8 dereferenceable(16) %pNode) #12
  ret ptr %call5

lpad:                                             ; preds = %entry
  %4 = landingpad { ptr, i32 }
          cleanup
  %5 = extractvalue { ptr, i32 } %4, 0
  store ptr %5, ptr %exn.slot, align 8
  %6 = extractvalue { ptr, i32 } %4, 1
  store i32 %6, ptr %ehselector.slot, align 4
  call void @_ZdlPv(ptr noundef %call) #14
  br label %eh.resume

lpad2:                                            ; preds = %invoke.cont
  %7 = landingpad { ptr, i32 }
          cleanup
  %8 = extractvalue { ptr, i32 } %7, 0
  store ptr %8, ptr %exn.slot, align 8
  %9 = extractvalue { ptr, i32 } %7, 1
  store i32 %9, ptr %ehselector.slot, align 4
  call void @_ZNSt10shared_ptrIN4YAML6detail4nodeEED2Ev(ptr noundef nonnull align 8 dereferenceable(16) %pNode) #12
  br label %eh.resume

eh.resume:                                        ; preds = %lpad2, %lpad
  %exn = load ptr, ptr %exn.slot, align 8
  %sel = load i32, ptr %ehselector.slot, align 4
  %lpad.val = insertvalue { ptr, i32 } poison, ptr %exn, 0
  %lpad.val6 = insertvalue { ptr, i32 } %lpad.val, i32 %sel, 1
  resume { ptr, i32 } %lpad.val6
}